; Function Attrs: mustprogress uwtable
define internal fastcc noundef i32 @_ZN3re2L16StringViewToRuneEPiPN4absl7debian211string_viewEPNS_12RegexpStatusE(ptr noundef %r, ptr nocapture noundef %sp, ptr noundef writeonly %status) unnamed_addr #8 {
entry:
  %0 = load ptr, ptr %sp, align 8
  %length_.i = getelementptr inbounds i8, ptr %sp, i64 8
  %1 = load i64, ptr %length_.i, align 8
  %.sroa.speculated = tail call i64 @llvm.umin.i64(i64 %1, i64 4)
  %conv = trunc i64 %.sroa.speculated to i32
  %call4 = tail call noundef i32 @_ZN3re28fullruneEPKci(ptr noundef %0, i32 noundef %conv)
  %tobool.not = icmp eq i32 %call4, 0
  br i1 %tobool.not, label %if.end13, label %if.then

if.then:                                          ; preds = %entry
  %2 = load ptr, ptr %sp, align 8
  %call6 = tail call noundef i32 @_ZN3re210chartoruneEPiPKc(ptr noundef %r, ptr noundef %2)
  %3 = load i32, ptr %r, align 4
  %cmp = icmp sgt i32 %3, 1114111
  br i1 %cmp, label %land.lhs.true.thread, label %if.end

land.lhs.true.thread:                             ; preds = %if.then
  store i32 65533, ptr %r, align 4
  br label %if.end13

if.end:                                           ; preds = %if.then
  %cmp8 = icmp eq i32 %call6, 1
  %cmp9 = icmp eq i32 %3, 65533
  %or.cond = and i1 %cmp8, %cmp9
  br i1 %or.cond, label %if.end13, label %if.then10

if.then10:                                        ; preds = %if.end
  %conv11 = sext i32 %call6 to i64
  %4 = load i64, ptr %length_.i, align 8
  %cmp.not.i = icmp ult i64 %4, %conv11
  br i1 %cmp.not.i, label %cond.false.i, label %_ZN4absl7debian211string_view13remove_prefixEm.exit

cond.false.i:                                     ; preds = %if.then10
  tail call void @llvm.trap()
  unreachable

_ZN4absl7debian211string_view13remove_prefixEm.exit: ; preds = %if.then10
  %5 = load ptr, ptr %sp, align 8
  %add.ptr.i = getelementptr inbounds i8, ptr %5, i64 %conv11
  store ptr %add.ptr.i, ptr %sp, align 8
  %sub.i = sub i64 %4, %conv11
  store i64 %sub.i, ptr %length_.i, align 8
  br label %return

if.end13:                                         ; preds = %if.end, %land.lhs.true.thread, %entry
  %cmp14.not = icmp eq ptr %status, null
  br i1 %cmp14.not, label %return, label %if.then15

if.then15:                                        ; preds = %if.end13
  store i32 13, ptr %status, align 8
  %error_arg_.i = getelementptr inbounds i8, ptr %status, i64 8
  tail call void @llvm.memset.p0.i64(ptr noundef nonnull align 8 dereferenceable(16) %error_arg_.i, i8 0, i64 16, i1 false)
  br label %return

return:                                           ; preds = %if.end13, %if.then15, %_ZN4absl7debian211string_view13remove_prefixEm.exit
  %retval.0 = phi i32 [ %call6, %_ZN4absl7debian211string_view13remove_prefixEm.exit ], [ -1, %if.then15 ], [ -1, %if.end13 ]
  ret i32 %retval.0
}